V@media print {\u000a  header .nav,\u000a  #toc {\u000a    display: none;\u000a  }\u000a  body {\u000a    font-size: 14px;\u000a  }\u000a  blockquote {\u000a    font-size: 15px;\u000a  }\u000a  .admonition,\u000a  .note,\u000a  .warning {\u000a    font-size: 14px;\u000a    page-break-inside: avoid;\u000a  }\u000a}\u000a
p1
.